target datalayout = "e-m:e-p270:32:32-p271:32:32-p272:64:64-i64:64-i128:128-f80:128-n8:16:32:64-S128"
target triple = "x86_64-pc-linux-gnu"

%struct.altsvcinfo = type { ptr, %struct.Curl_llist, i64 }
%struct.Curl_llist = type { ptr, ptr, ptr, i64 }
%struct.altsvc = type { %struct.althost, %struct.althost, i64, i8, i32, %struct.Curl_llist_node }
%struct.althost = type { ptr, i16, i32 }
%struct.Curl_llist_node = type { ptr, ptr, ptr, ptr }

@Curl_cfree = external global ptr, align 8

; Function Attrs: nounwind uwtable
define internal zeroext i1 @hostcompare(ptr noundef %0, ptr noundef %1) #0 {
  %3 = alloca i1, align 1
  %4 = alloca ptr, align 8
  %5 = alloca ptr, align 8
  %6 = alloca i64, align 8
  %7 = alloca i64, align 8
  %8 = alloca i32, align 4
  store ptr %0, ptr %4, align 8, !tbaa !17
  store ptr %1, ptr %5, align 8, !tbaa !17
  call void @llvm.lifetime.start.p0(i64 8, ptr %6) #7
  %9 = load ptr, ptr %4, align 8, !tbaa !17
  %10 = call i64 @strlen(ptr noundef %9) #8
  store i64 %10, ptr %6, align 8, !tbaa !25
  call void @llvm.lifetime.start.p0(i64 8, ptr %7) #7
  %11 = load ptr, ptr %5, align 8, !tbaa !17
  %12 = call i64 @strlen(ptr noundef %11) #8
  store i64 %12, ptr %7, align 8, !tbaa !25
  %13 = load i64, ptr %6, align 8, !tbaa !25
  %14 = icmp ne i64 %13, 0
  br i1 %14, label %15, label %26

15:                                               ; preds = %2
  %16 = load ptr, ptr %4, align 8, !tbaa !17
  %17 = load i64, ptr %6, align 8, !tbaa !25
  %18 = sub i64 %17, 1
  %19 = getelementptr inbounds nuw i8, ptr %16, i64 %18
  %20 = load i8, ptr %19, align 1, !tbaa !21
  %21 = sext i8 %20 to i32
  %22 = icmp eq i32 %21, 46
  br i1 %22, label %23, label %26

23:                                               ; preds = %15
  %24 = load i64, ptr %6, align 8, !tbaa !25
  %25 = add i64 %24, -1
  store i64 %25, ptr %6, align 8, !tbaa !25
  br label %26

26:                                               ; preds = %23, %15, %2
  %27 = load i64, ptr %6, align 8, !tbaa !25
  %28 = load i64, ptr %7, align 8, !tbaa !25
  %29 = icmp ne i64 %27, %28
  br i1 %29, label %30, label %31

30:                                               ; preds = %26
  store i1 false, ptr %3, align 1
  store i32 1, ptr %8, align 4
  br label %37

31:                                               ; preds = %26
  %32 = load ptr, ptr %4, align 8, !tbaa !17
  %33 = load ptr, ptr %5, align 8, !tbaa !17
  %34 = load i64, ptr %6, align 8, !tbaa !25
  %35 = call i32 @curl_strnequal(ptr noundef %32, ptr noundef %33, i64 noundef %34)
  %36 = icmp ne i32 %35, 0
  store i1 %36, ptr %3, align 1
  store i32 1, ptr %8, align 4
  br label %37

37:                                               ; preds = %31, %30
  call void @llvm.lifetime.end.p0(i64 8, ptr %7) #7
  call void @llvm.lifetime.end.p0(i64 8, ptr %6) #7
  %38 = load i1, ptr %3, align 1
  ret i1 %38
}

; Function Attrs: nounwind uwtable
define internal void @altsvc_free(ptr noundef %0) #0 {
  %2 = alloca ptr, align 8
  store ptr %0, ptr %2, align 8, !tbaa !29
  %3 = load ptr, ptr @Curl_cfree, align 8, !tbaa !7
  %4 = load ptr, ptr %2, align 8, !tbaa !29
  %5 = getelementptr inbounds nuw %struct.altsvc, ptr %4, i32 0, i32 0
  %6 = getelementptr inbounds nuw %struct.althost, ptr %5, i32 0, i32 0
  %7 = load ptr, ptr %6, align 8, !tbaa !32
  call void %3(ptr noundef %7)
  %8 = load ptr, ptr @Curl_cfree, align 8, !tbaa !7
  %9 = load ptr, ptr %2, align 8, !tbaa !29
  %10 = getelementptr inbounds nuw %struct.altsvc, ptr %9, i32 0, i32 1
  %11 = getelementptr inbounds nuw %struct.althost, ptr %10, i32 0, i32 0
  %12 = load ptr, ptr %11, align 8, !tbaa !39
  call void %8(ptr noundef %12)
  %13 = load ptr, ptr @Curl_cfree, align 8, !tbaa !7
  %14 = load ptr, ptr %2, align 8, !tbaa !29
  call void %13(ptr noundef %14)
  ret void
}

; Function Attrs: nounwind uwtable
define hidden zeroext i1 @Curl_altsvc_lookup(ptr noundef %0, i32 noundef %1, ptr noundef %2, i32 noundef %3, ptr noundef %4, i32 noundef %5) #0 {
  %7 = alloca i1, align 1
  %8 = alloca ptr, align 8
  %9 = alloca i32, align 4
  %10 = alloca ptr, align 8
  %11 = alloca i32, align 4
  %12 = alloca ptr, align 8
  %13 = alloca i32, align 4
  %14 = alloca ptr, align 8
  %15 = alloca ptr, align 8
  %16 = alloca i64, align 8
  %17 = alloca ptr, align 8
  %18 = alloca i32, align 4
  store ptr %0, ptr %8, align 8, !tbaa !9
  store i32 %1, ptr %9, align 4, !tbaa !3
  store ptr %2, ptr %10, align 8, !tbaa !17
  store i32 %3, ptr %11, align 4, !tbaa !3
  store ptr %4, ptr %12, align 8, !tbaa !134
  store i32 %5, ptr %13, align 4, !tbaa !3
  call void @llvm.lifetime.start.p0(i64 8, ptr %14) #7
  call void @llvm.lifetime.start.p0(i64 8, ptr %15) #7
  call void @llvm.lifetime.start.p0(i64 8, ptr %16) #7
  %19 = call i64 @time(ptr noundef null) #7
  store i64 %19, ptr %16, align 8, !tbaa !25
  br label %20

20:                                               ; preds = %6
  br label %21

21:                                               ; preds = %20
  br label %22

22:                                               ; preds = %21
  br label %23

23:                                               ; preds = %22
  br label %24

24:                                               ; preds = %23
  br label %25

25:                                               ; preds = %24
  br label %26

26:                                               ; preds = %25
  br label %27

27:                                               ; preds = %26
  br label %28

28:                                               ; preds = %27
  %29 = load ptr, ptr %8, align 8, !tbaa !9
  %30 = getelementptr inbounds nuw %struct.altsvcinfo, ptr %29, i32 0, i32 1
  %31 = call ptr @Curl_llist_head(ptr noundef %30)
  store ptr %31, ptr %14, align 8, !tbaa !28
  br label %32

32:                                               ; preds = %85, %28
  %33 = load ptr, ptr %14, align 8, !tbaa !28
  %34 = icmp ne ptr %33, null
  br i1 %34, label %35, label %87

35:                                               ; preds = %32
  call void @llvm.lifetime.start.p0(i64 8, ptr %17) #7
  %36 = load ptr, ptr %14, align 8, !tbaa !28
  %37 = call ptr @Curl_node_elem(ptr noundef %36)
  store ptr %37, ptr %17, align 8, !tbaa !29
  %38 = load ptr, ptr %14, align 8, !tbaa !28
  %39 = call ptr @Curl_node_next(ptr noundef %38)
  store ptr %39, ptr %15, align 8, !tbaa !28
  %40 = load ptr, ptr %17, align 8, !tbaa !29
  %41 = getelementptr inbounds nuw %struct.altsvc, ptr %40, i32 0, i32 2
  %42 = load i64, ptr %41, align 8, !tbaa !43
  %43 = load i64, ptr %16, align 8, !tbaa !25
  %44 = icmp slt i64 %42, %43
  br i1 %44, label %45, label %48

45:                                               ; preds = %35
  %46 = load ptr, ptr %14, align 8, !tbaa !28
  call void @Curl_node_remove(ptr noundef %46)
  %47 = load ptr, ptr %17, align 8, !tbaa !29
  call void @altsvc_free(ptr noundef %47)
  store i32 10, ptr %18, align 4
  br label %82

48:                                               ; preds = %35
  %49 = load ptr, ptr %17, align 8, !tbaa !29
  %50 = getelementptr inbounds nuw %struct.altsvc, ptr %49, i32 0, i32 0
  %51 = getelementptr inbounds nuw %struct.althost, ptr %50, i32 0, i32 2
  %52 = load i32, ptr %51, align 4, !tbaa !44
  %53 = load i32, ptr %9, align 4, !tbaa !3
  %54 = icmp eq i32 %52, %53
  br i1 %54, label %55, label %81

55:                                               ; preds = %48
  %56 = load ptr, ptr %10, align 8, !tbaa !17
  %57 = load ptr, ptr %17, align 8, !tbaa !29
  %58 = getelementptr inbounds nuw %struct.altsvc, ptr %57, i32 0, i32 0
  %59 = getelementptr inbounds nuw %struct.althost, ptr %58, i32 0, i32 0
  %60 = load ptr, ptr %59, align 8, !tbaa !32
  %61 = call zeroext i1 @hostcompare(ptr noundef %56, ptr noundef %60)
  br i1 %61, label %62, label %81

62:                                               ; preds = %55
  %63 = load ptr, ptr %17, align 8, !tbaa !29
  %64 = getelementptr inbounds nuw %struct.altsvc, ptr %63, i32 0, i32 0
  %65 = getelementptr inbounds nuw %struct.althost, ptr %64, i32 0, i32 1
  %66 = load i16, ptr %65, align 8, !tbaa !45
  %67 = zext i16 %66 to i32
  %68 = load i32, ptr %11, align 4, !tbaa !3
  %69 = icmp eq i32 %67, %68
  br i1 %69, label %70, label %81

70:                                               ; preds = %62
  %71 = load i32, ptr %13, align 4, !tbaa !3
  %72 = load ptr, ptr %17, align 8, !tbaa !29
  %73 = getelementptr inbounds nuw %struct.altsvc, ptr %72, i32 0, i32 1
  %74 = getelementptr inbounds nuw %struct.althost, ptr %73, i32 0, i32 2
  %75 = load i32, ptr %74, align 4, !tbaa !46
  %76 = and i32 %71, %75
  %77 = icmp ne i32 %76, 0
  br i1 %77, label %78, label %81

78:                                               ; preds = %70
  %79 = load ptr, ptr %17, align 8, !tbaa !29
  %80 = load ptr, ptr %12, align 8, !tbaa !134
  store ptr %79, ptr %80, align 8, !tbaa !29
  store i1 true, ptr %7, align 1
  store i32 1, ptr %18, align 4
  br label %82

81:                                               ; preds = %70, %62, %55, %48
  store i32 0, ptr %18, align 4
  br label %82

82:                                               ; preds = %81, %78, %45
  call void @llvm.lifetime.end.p0(i64 8, ptr %17) #7
  %83 = load i32, ptr %18, align 4
  switch i32 %83, label %88 [
    i32 0, label %84
    i32 10, label %85
  ]

84:                                               ; preds = %82
  br label %85

85:                                               ; preds = %84, %82
  %86 = load ptr, ptr %15, align 8, !tbaa !28
  store ptr %86, ptr %14, align 8, !tbaa !28
  br label %32, !llvm.loop !136

87:                                               ; preds = %32
  store i1 false, ptr %7, align 1
  store i32 1, ptr %18, align 4
  br label %88

88:                                               ; preds = %87, %82
  call void @llvm.lifetime.end.p0(i64 8, ptr %16) #7
  call void @llvm.lifetime.end.p0(i64 8, ptr %15) #7
  call void @llvm.lifetime.end.p0(i64 8, ptr %14) #7
  %89 = load i1, ptr %7, align 1
  ret i1 %89
}