; Function Attrs: nounwind uwtable
define hidden noundef zeroext i1 @Curl_altsvc_lookup(ptr noundef %0, i32 noundef %1, ptr noundef %2, i32 noundef %3, ptr noundef writeonly captures(none) %4, i32 noundef %5) local_unnamed_addr #1 {
  %7 = tail call i64 @time(ptr noundef null) #12
  %8 = getelementptr inbounds nuw i8, ptr %0, i64 8
  %9 = tail call ptr @Curl_llist_head(ptr noundef nonnull %8) #12
  %invariant.gep = getelementptr i8, ptr %2, i64 -1
  %.not28.not = icmp eq ptr %9, null
  br i1 %.not28.not, label %.loopexit, label %.lr.ph

.lr.ph:                                           ; preds = %6, %hostcompare.exit.thread
  %.02129 = phi ptr [ %11, %hostcompare.exit.thread ], [ %9, %6 ]
  %10 = tail call ptr @Curl_node_elem(ptr noundef nonnull %.02129) #12
  %11 = tail call ptr @Curl_node_next(ptr noundef nonnull %.02129) #12
  %12 = getelementptr inbounds nuw i8, ptr %10, i64 32
  %13 = load i64, ptr %12, align 8, !tbaa !22
  %14 = icmp slt i64 %13, %7
  br i1 %14, label %15, label %22

15:                                               ; preds = %.lr.ph
  tail call void @Curl_node_remove(ptr noundef nonnull %.02129) #12
  %16 = load ptr, ptr @Curl_cfree, align 8, !tbaa !3
  %17 = load ptr, ptr %10, align 8, !tbaa !34
  tail call void %16(ptr noundef %17) #12
  %18 = load ptr, ptr @Curl_cfree, align 8, !tbaa !3
  %19 = getelementptr inbounds nuw i8, ptr %10, i64 16
  %20 = load ptr, ptr %19, align 8, !tbaa !35
  tail call void %18(ptr noundef %20) #12
  %21 = load ptr, ptr @Curl_cfree, align 8, !tbaa !3
  tail call void %21(ptr noundef nonnull %10) #12
  br label %hostcompare.exit.thread

22:                                               ; preds = %.lr.ph
  %23 = getelementptr inbounds nuw i8, ptr %10, i64 12
  %24 = load i32, ptr %23, align 4, !tbaa !39
  %25 = icmp eq i32 %24, %1
  br i1 %25, label %26, label %hostcompare.exit.thread

26:                                               ; preds = %22
  %27 = load ptr, ptr %10, align 8, !tbaa !34
  %28 = tail call i64 @strlen(ptr noundef nonnull dereferenceable(1) %2) #13
  %29 = tail call i64 @strlen(ptr noundef nonnull dereferenceable(1) %27) #13
  %.not.i = icmp eq i64 %28, 0
  br i1 %.not.i, label %34, label %30

30:                                               ; preds = %26
  %gep = getelementptr i8, ptr %invariant.gep, i64 %28
  %31 = load i8, ptr %gep, align 1, !tbaa !14
  %32 = icmp eq i8 %31, 46
  %33 = sext i1 %32 to i64
  %spec.select.i = add i64 %28, %33
  br label %34

34:                                               ; preds = %30, %26
  %.011.i = phi i64 [ 0, %26 ], [ %spec.select.i, %30 ]
  %.not13.i = icmp eq i64 %.011.i, %29
  br i1 %.not13.i, label %hostcompare.exit, label %hostcompare.exit.thread

hostcompare.exit:                                 ; preds = %34
  %35 = tail call i32 @curl_strnequal(ptr noundef nonnull %2, ptr noundef nonnull %27, i64 noundef %29) #12
  %.not25 = icmp eq i32 %35, 0
  br i1 %.not25, label %hostcompare.exit.thread, label %36

36:                                               ; preds = %hostcompare.exit
  %37 = getelementptr inbounds nuw i8, ptr %10, i64 8
  %38 = load i16, ptr %37, align 8, !tbaa !40
  %39 = zext i16 %38 to i32
  %40 = icmp eq i32 %3, %39
  br i1 %40, label %41, label %hostcompare.exit.thread

41:                                               ; preds = %36
  %42 = getelementptr inbounds nuw i8, ptr %10, i64 28
  %43 = load i32, ptr %42, align 4, !tbaa !41
  %44 = and i32 %43, %5
  %.not22 = icmp eq i32 %44, 0
  br i1 %.not22, label %hostcompare.exit.thread, label %45

45:                                               ; preds = %41
  store ptr %10, ptr %4, align 8, !tbaa !122
  br label %.loopexit

hostcompare.exit.thread:                          ; preds = %34, %15, %41, %36, %hostcompare.exit, %22
  %.not.not = icmp eq ptr %11, null
  br i1 %.not.not, label %.loopexit, label %.lr.ph, !llvm.loop !124

.loopexit:                                        ; preds = %hostcompare.exit.thread, %6, %45
  %.not27 = phi i1 [ true, %45 ], [ false, %6 ], [ false, %hostcompare.exit.thread ]
  ret i1 %.not27
}